target datalayout = "e-m:e-p270:32:32-p271:32:32-p272:64:64-i64:64-i128:128-f80:128-n8:16:32:64-S128"
target triple = "x86_64-pc-linux-gnu"

%struct.Llb_Man_t_ = type { ptr, ptr, ptr, ptr, ptr, ptr, ptr, ptr, ptr, ptr, ptr, ptr, ptr, ptr, ptr, ptr, ptr }
%struct.Aig_Man_t_ = type { ptr, ptr, ptr, ptr, ptr, ptr, ptr, %struct.Aig_Obj_t_, i32, i32, i32, i32, i32, i32, [7 x i32], i32, ptr, i32, ptr, i32, ptr, i32, i32, i32, ptr, i32, i32, i32, i32, i32, ptr, ptr, i32, ptr, ptr, i32, ptr, ptr, i32, i32, i32, ptr, ptr, ptr, ptr, ptr, ptr, ptr, ptr, ptr, ptr, ptr, ptr, ptr, ptr, i32, ptr, ptr, ptr, ptr, i32, i64, i64, i64, ptr, ptr }
%struct.Aig_Obj_t_ = type { %union.anon, ptr, ptr, i64, i32, i32, %union.anon.0 }
%union.anon = type { ptr }
%union.anon.0 = type { ptr }
%struct.Vec_Int_t_ = type { i32, i32, ptr }
%struct.Vec_Ptr_t_ = type { i32, i32, ptr }

@.str = private unnamed_addr constant [10 x i8] c"pi =%3d  \00", align 1
@.str.1 = private unnamed_addr constant [10 x i8] c"po =%3d  \00", align 1
@.str.2 = private unnamed_addr constant [10 x i8] c"ff =%3d  \00", align 1
@.str.3 = private unnamed_addr constant [11 x i8] c"int =%5d  \00", align 1
@.str.4 = private unnamed_addr constant [11 x i8] c"var =%5d  \00", align 1
@.str.5 = private unnamed_addr constant [12 x i8] c"part =%5d  \00", align 1
@.str.6 = private unnamed_addr constant [11 x i8] c"and =%5d  \00", align 1
@.str.7 = private unnamed_addr constant [11 x i8] c"lev =%4d  \00", align 1
@.str.8 = private unnamed_addr constant [2 x i8] c"\0A\00", align 1

; Function Attrs: inlinehint nounwind uwtable
define internal i32 @Aig_ManNodeNum(ptr noundef %0) #2 {
  %2 = alloca ptr, align 8
  store ptr %0, ptr %2, align 8, !tbaa !50
  %3 = load ptr, ptr %2, align 8, !tbaa !50
  %4 = getelementptr inbounds nuw %struct.Aig_Man_t_, ptr %3, i32 0, i32 14
  %5 = getelementptr inbounds [7 x i32], ptr %4, i64 0, i64 5
  %6 = load i32, ptr %5, align 4, !tbaa !45
  %7 = load ptr, ptr %2, align 8, !tbaa !50
  %8 = getelementptr inbounds nuw %struct.Aig_Man_t_, ptr %7, i32 0, i32 14
  %9 = getelementptr inbounds [7 x i32], ptr %8, i64 0, i64 6
  %10 = load i32, ptr %9, align 8, !tbaa !45
  %11 = add nsw i32 %6, %10
  ret i32 %11
}

; Function Attrs: inlinehint nounwind uwtable
define internal i32 @Vec_PtrSize(ptr noundef %0) #2 {
  %2 = alloca ptr, align 8
  store ptr %0, ptr %2, align 8, !tbaa !65
  %3 = load ptr, ptr %2, align 8, !tbaa !65
  %4 = getelementptr inbounds nuw %struct.Vec_Ptr_t_, ptr %3, i32 0, i32 1
  %5 = load i32, ptr %4, align 4, !tbaa !66
  ret i32 %5
}

; Function Attrs: inlinehint nounwind uwtable
define internal i32 @Aig_ManCiNum(ptr noundef %0) #2 {
  %2 = alloca ptr, align 8
  store ptr %0, ptr %2, align 8, !tbaa !50
  %3 = load ptr, ptr %2, align 8, !tbaa !50
  %4 = getelementptr inbounds nuw %struct.Aig_Man_t_, ptr %3, i32 0, i32 14
  %5 = getelementptr inbounds [7 x i32], ptr %4, i64 0, i64 2
  %6 = load i32, ptr %5, align 8, !tbaa !45
  ret i32 %6
}

; Function Attrs: inlinehint nounwind uwtable
define internal i32 @Vec_IntSize(ptr noundef %0) #2 {
  %2 = alloca ptr, align 8
  store ptr %0, ptr %2, align 8, !tbaa !62
  %3 = load ptr, ptr %2, align 8, !tbaa !62
  %4 = getelementptr inbounds nuw %struct.Vec_Int_t_, ptr %3, i32 0, i32 1
  %5 = load i32, ptr %4, align 4, !tbaa !63
  ret i32 %5
}

; Function Attrs: inlinehint nounwind uwtable
define internal i32 @Saig_ManRegNum(ptr noundef %0) #2 {
  %2 = alloca ptr, align 8
  store ptr %0, ptr %2, align 8, !tbaa !50
  %3 = load ptr, ptr %2, align 8, !tbaa !50
  %4 = getelementptr inbounds nuw %struct.Aig_Man_t_, ptr %3, i32 0, i32 8
  %5 = load i32, ptr %4, align 8, !tbaa !61
  ret i32 %5
}

; Function Attrs: inlinehint nounwind uwtable
define internal i32 @Saig_ManPoNum(ptr noundef %0) #2 {
  %2 = alloca ptr, align 8
  store ptr %0, ptr %2, align 8, !tbaa !50
  %3 = load ptr, ptr %2, align 8, !tbaa !50
  %4 = getelementptr inbounds nuw %struct.Aig_Man_t_, ptr %3, i32 0, i32 10
  %5 = load i32, ptr %4, align 8, !tbaa !60
  ret i32 %5
}

; Function Attrs: inlinehint nounwind uwtable
define internal i32 @Saig_ManPiNum(ptr noundef %0) #2 {
  %2 = alloca ptr, align 8
  store ptr %0, ptr %2, align 8, !tbaa !50
  %3 = load ptr, ptr %2, align 8, !tbaa !50
  %4 = getelementptr inbounds nuw %struct.Aig_Man_t_, ptr %3, i32 0, i32 9
  %5 = load i32, ptr %4, align 4, !tbaa !51
  ret i32 %5
}

; Function Attrs: nounwind uwtable
define void @Llb_ManPrintAig(ptr noundef %0) #0 {
  %2 = alloca ptr, align 8
  store ptr %0, ptr %2, align 8, !tbaa !34
  %3 = load ptr, ptr %2, align 8, !tbaa !34
  %4 = getelementptr inbounds nuw %struct.Llb_Man_t_, ptr %3, i32 0, i32 2
  %5 = load ptr, ptr %4, align 8, !tbaa !36
  %6 = call i32 @Saig_ManPiNum(ptr noundef %5)
  call void (i32, ptr, ...) @Abc_Print(i32 noundef 1, ptr noundef @.str, i32 noundef %6)
  %7 = load ptr, ptr %2, align 8, !tbaa !34
  %8 = getelementptr inbounds nuw %struct.Llb_Man_t_, ptr %7, i32 0, i32 2
  %9 = load ptr, ptr %8, align 8, !tbaa !36
  %10 = call i32 @Saig_ManPoNum(ptr noundef %9)
  call void (i32, ptr, ...) @Abc_Print(i32 noundef 1, ptr noundef @.str.1, i32 noundef %10)
  %11 = load ptr, ptr %2, align 8, !tbaa !34
  %12 = getelementptr inbounds nuw %struct.Llb_Man_t_, ptr %11, i32 0, i32 2
  %13 = load ptr, ptr %12, align 8, !tbaa !36
  %14 = call i32 @Saig_ManRegNum(ptr noundef %13)
  call void (i32, ptr, ...) @Abc_Print(i32 noundef 1, ptr noundef @.str.2, i32 noundef %14)
  %15 = load ptr, ptr %2, align 8, !tbaa !34
  %16 = getelementptr inbounds nuw %struct.Llb_Man_t_, ptr %15, i32 0, i32 7
  %17 = load ptr, ptr %16, align 8, !tbaa !43
  %18 = call i32 @Vec_IntSize(ptr noundef %17)
  %19 = load ptr, ptr %2, align 8, !tbaa !34
  %20 = getelementptr inbounds nuw %struct.Llb_Man_t_, ptr %19, i32 0, i32 2
  %21 = load ptr, ptr %20, align 8, !tbaa !36
  %22 = call i32 @Aig_ManCiNum(ptr noundef %21)
  %23 = sub nsw i32 %18, %22
  %24 = load ptr, ptr %2, align 8, !tbaa !34
  %25 = getelementptr inbounds nuw %struct.Llb_Man_t_, ptr %24, i32 0, i32 2
  %26 = load ptr, ptr %25, align 8, !tbaa !36
  %27 = call i32 @Saig_ManRegNum(ptr noundef %26)
  %28 = sub nsw i32 %23, %27
  call void (i32, ptr, ...) @Abc_Print(i32 noundef 1, ptr noundef @.str.3, i32 noundef %28)
  %29 = load ptr, ptr %2, align 8, !tbaa !34
  %30 = getelementptr inbounds nuw %struct.Llb_Man_t_, ptr %29, i32 0, i32 7
  %31 = load ptr, ptr %30, align 8, !tbaa !43
  %32 = call i32 @Vec_IntSize(ptr noundef %31)
  call void (i32, ptr, ...) @Abc_Print(i32 noundef 1, ptr noundef @.str.4, i32 noundef %32)
  %33 = load ptr, ptr %2, align 8, !tbaa !34
  %34 = getelementptr inbounds nuw %struct.Llb_Man_t_, ptr %33, i32 0, i32 8
  %35 = load ptr, ptr %34, align 8, !tbaa !44
  %36 = call i32 @Vec_PtrSize(ptr noundef %35)
  %37 = sub nsw i32 %36, 2
  call void (i32, ptr, ...) @Abc_Print(i32 noundef 1, ptr noundef @.str.5, i32 noundef %37)
  %38 = load ptr, ptr %2, align 8, !tbaa !34
  %39 = getelementptr inbounds nuw %struct.Llb_Man_t_, ptr %38, i32 0, i32 2
  %40 = load ptr, ptr %39, align 8, !tbaa !36
  %41 = call i32 @Aig_ManNodeNum(ptr noundef %40)
  call void (i32, ptr, ...) @Abc_Print(i32 noundef 1, ptr noundef @.str.6, i32 noundef %41)
  %42 = load ptr, ptr %2, align 8, !tbaa !34
  %43 = getelementptr inbounds nuw %struct.Llb_Man_t_, ptr %42, i32 0, i32 2
  %44 = load ptr, ptr %43, align 8, !tbaa !36
  %45 = call i32 @Aig_ManLevelNum(ptr noundef %44)
  call void (i32, ptr, ...) @Abc_Print(i32 noundef 1, ptr noundef @.str.7, i32 noundef %45)
  call void (i32, ptr, ...) @Abc_Print(i32 noundef 1, ptr noundef @.str.8)
  ret void
}