; Function Attrs: nounwind uwtable
define void @Llb_ManPrintAig(ptr noundef readonly captures(none) %0) local_unnamed_addr #2 {
  %2 = getelementptr inbounds nuw i8, ptr %0, i64 16
  %3 = load ptr, ptr %2, align 8, !tbaa !21
  %4 = getelementptr i8, ptr %3, i64 108
  %.val = load i32, ptr %4, align 4, !tbaa !30
  tail call void (i32, ptr, ...) @Abc_Print(i32 poison, ptr noundef nonnull @.str, i32 noundef %.val)
  %5 = load ptr, ptr %2, align 8, !tbaa !21
  %6 = getelementptr i8, ptr %5, i64 112
  %.val10 = load i32, ptr %6, align 8, !tbaa !40
  tail call void (i32, ptr, ...) @Abc_Print(i32 poison, ptr noundef nonnull @.str.1, i32 noundef %.val10)
  %7 = load ptr, ptr %2, align 8, !tbaa !21
  %8 = getelementptr i8, ptr %7, i64 104
  %.val11 = load i32, ptr %8, align 8, !tbaa !41
  tail call void (i32, ptr, ...) @Abc_Print(i32 poison, ptr noundef nonnull @.str.2, i32 noundef %.val11)
  %9 = getelementptr inbounds nuw i8, ptr %0, i64 56
  %10 = load ptr, ptr %9, align 8, !tbaa !42
  %11 = getelementptr i8, ptr %10, i64 4
  %.val13 = load i32, ptr %11, align 4, !tbaa !43
  %12 = load ptr, ptr %2, align 8, !tbaa !21
  %13 = getelementptr i8, ptr %12, i64 136
  %.val15 = load i32, ptr %13, align 8, !tbaa !45
  %14 = getelementptr i8, ptr %12, i64 104
  %.val12 = load i32, ptr %14, align 8, !tbaa !41
  %15 = add i32 %.val15, %.val12
  %16 = sub i32 %.val13, %15
  tail call void (i32, ptr, ...) @Abc_Print(i32 poison, ptr noundef nonnull @.str.3, i32 noundef %16)
  %17 = load ptr, ptr %9, align 8, !tbaa !42
  %18 = getelementptr i8, ptr %17, i64 4
  %.val14 = load i32, ptr %18, align 4, !tbaa !43
  tail call void (i32, ptr, ...) @Abc_Print(i32 poison, ptr noundef nonnull @.str.4, i32 noundef %.val14)
  %19 = getelementptr inbounds nuw i8, ptr %0, i64 64
  %20 = load ptr, ptr %19, align 8, !tbaa !46
  %21 = getelementptr i8, ptr %20, i64 4
  %.val16 = load i32, ptr %21, align 4, !tbaa !47
  %22 = add nsw i32 %.val16, -2
  tail call void (i32, ptr, ...) @Abc_Print(i32 poison, ptr noundef nonnull @.str.5, i32 noundef %22)
  %23 = load ptr, ptr %2, align 8, !tbaa !21
  %24 = getelementptr i8, ptr %23, i64 148
  %.val17 = load i32, ptr %24, align 4, !tbaa !45
  %25 = getelementptr i8, ptr %23, i64 152
  %.val18 = load i32, ptr %25, align 8, !tbaa !45
  %26 = add nsw i32 %.val18, %.val17
  tail call void (i32, ptr, ...) @Abc_Print(i32 poison, ptr noundef nonnull @.str.6, i32 noundef %26)
  %27 = load ptr, ptr %2, align 8, !tbaa !21
  %28 = tail call i32 @Aig_ManLevelNum(ptr noundef %27) #12
  tail call void (i32, ptr, ...) @Abc_Print(i32 poison, ptr noundef nonnull @.str.7, i32 noundef %28)
  tail call void (i32, ptr, ...) @Abc_Print(i32 poison, ptr noundef nonnull @.str.8)
  ret void
}